; Function Attrs: nofree norecurse nosync nounwind memory(readwrite, inaccessiblemem: none) uwtable
define void @stbtt_GetCodepointBitmapBoxSubpixel(ptr noundef readonly captures(none) %0, i32 noundef %1, float noundef %2, float noundef %3, float noundef %4, float noundef %5, ptr noundef writeonly captures(address_is_null) %6, ptr noundef writeonly captures(address_is_null) %7, ptr noundef writeonly captures(address_is_null) %8, ptr noundef writeonly captures(address_is_null) %9) local_unnamed_addr #13 {
  %11 = alloca i32, align 4
  %12 = alloca i32, align 4
  %13 = alloca i32, align 4
  %14 = alloca i32, align 4
  %15 = tail call i32 @stbtt_FindGlyphIndex(ptr noundef %0, i32 noundef %1)
  call void @llvm.lifetime.start.p0(i64 4, ptr nonnull %11) #32
  store i32 0, ptr %11, align 4, !tbaa !17
  call void @llvm.lifetime.start.p0(i64 4, ptr nonnull %12) #32
  store i32 0, ptr %12, align 4, !tbaa !17
  call void @llvm.lifetime.start.p0(i64 4, ptr nonnull %13) #32
  call void @llvm.lifetime.start.p0(i64 4, ptr nonnull %14) #32
  %16 = call i32 @stbtt_GetGlyphBox(ptr noundef readonly %0, i32 noundef %15, ptr noundef nonnull %11, ptr noundef nonnull %12, ptr noundef nonnull %13, ptr noundef nonnull %14)
  %.not.i = icmp eq i32 %16, 0
  %.not31.i = icmp eq ptr %6, null
  br i1 %.not.i, label %17, label %24

17:                                               ; preds = %10
  br i1 %.not31.i, label %19, label %18

18:                                               ; preds = %17
  store i32 0, ptr %6, align 4, !tbaa !17
  br label %19

19:                                               ; preds = %18, %17
  %.not32.i = icmp eq ptr %7, null
  br i1 %.not32.i, label %21, label %20

20:                                               ; preds = %19
  store i32 0, ptr %7, align 4, !tbaa !17
  br label %21

21:                                               ; preds = %20, %19
  %.not33.i = icmp eq ptr %8, null
  br i1 %.not33.i, label %23, label %22

22:                                               ; preds = %21
  store i32 0, ptr %8, align 4, !tbaa !17
  br label %23

23:                                               ; preds = %22, %21
  %.not34.i = icmp eq ptr %9, null
  br i1 %.not34.i, label %stbtt_GetGlyphBitmapBoxSubpixel.exit, label %.sink.split.i

24:                                               ; preds = %10
  br i1 %.not31.i, label %31, label %25

25:                                               ; preds = %24
  %26 = load i32, ptr %11, align 4, !tbaa !17
  %27 = sitofp i32 %26 to float
  %28 = call float @llvm.fmuladd.f32(float %27, float %2, float %4)
  %29 = call float @llvm.floor.f32(float %28)
  %30 = fptosi float %29 to i32
  store i32 %30, ptr %6, align 4, !tbaa !17
  br label %31

31:                                               ; preds = %25, %24
  %.not36.i = icmp eq ptr %7, null
  br i1 %.not36.i, label %39, label %32

32:                                               ; preds = %31
  %33 = load i32, ptr %14, align 4, !tbaa !17
  %34 = sub nsw i32 0, %33
  %35 = sitofp i32 %34 to float
  %36 = call float @llvm.fmuladd.f32(float %35, float %3, float %5)
  %37 = call float @llvm.floor.f32(float %36)
  %38 = fptosi float %37 to i32
  store i32 %38, ptr %7, align 4, !tbaa !17
  br label %39

39:                                               ; preds = %32, %31
  %.not37.i = icmp eq ptr %8, null
  br i1 %.not37.i, label %46, label %40

40:                                               ; preds = %39
  %41 = load i32, ptr %13, align 4, !tbaa !17
  %42 = sitofp i32 %41 to float
  %43 = call float @llvm.fmuladd.f32(float %42, float %2, float %4)
  %44 = call float @llvm.ceil.f32(float %43)
  %45 = fptosi float %44 to i32
  store i32 %45, ptr %8, align 4, !tbaa !17
  br label %46

46:                                               ; preds = %40, %39
  %.not38.i = icmp eq ptr %9, null
  br i1 %.not38.i, label %stbtt_GetGlyphBitmapBoxSubpixel.exit, label %47

47:                                               ; preds = %46
  %48 = load i32, ptr %12, align 4, !tbaa !17
  %49 = sub nsw i32 0, %48
  %50 = sitofp i32 %49 to float
  %51 = call float @llvm.fmuladd.f32(float %50, float %3, float %5)
  %52 = call float @llvm.ceil.f32(float %51)
  %53 = fptosi float %52 to i32
  br label %.sink.split.i

.sink.split.i:                                    ; preds = %47, %23
  %.sink.i = phi i32 [ %53, %47 ], [ 0, %23 ]
  store i32 %.sink.i, ptr %9, align 4, !tbaa !17
  br label %stbtt_GetGlyphBitmapBoxSubpixel.exit

stbtt_GetGlyphBitmapBoxSubpixel.exit:             ; preds = %23, %46, %.sink.split.i
  call void @llvm.lifetime.end.p0(i64 4, ptr nonnull %14) #32
  call void @llvm.lifetime.end.p0(i64 4, ptr nonnull %13) #32
  call void @llvm.lifetime.end.p0(i64 4, ptr nonnull %12) #32
  call void @llvm.lifetime.end.p0(i64 4, ptr nonnull %11) #32
  ret void
}